(dp0
VU6
p1
(dp2
Vautoconnect
p3
I00
sVname
p4
VU6
p5
sVautostart
p6
I00
sVautosave_variableset
p7
I01
sVdatafile_overwrite
p8
I00
sVhost
p9
Vsetup7
p10
sVautoload_variableset
p11
I01
sVexperiment_path
p12
V~/Repositories/coxlab/protocols/behavior/go_nogo_ab/gonogo_ab.xml
p13
sVautosave_datafile
p14
I00
sVvariableset_overwrite
p15
I00
sVautoload_experiment
p16
I01
ssVU1
p17
(dp18
Vautoconnect
p19
I00
sVname
p20
VU1
p21
sVautostart
p22
I00
sVautosave_variableset
p23
I01
sVdatafile_overwrite
p24
I00
sVhost
p25
Vsetup8
p26
sVautoload_variableset
p27
I01
sVexperiment_path
p28
V~/Repositories/coxlab/protocols/behavior/go_nogo_ab/gonogo_ab.xml
p29
sVautosave_datafile
p30
I00
sVvariableset_overwrite
p31
I00
sVautoload_experiment
p32
I01
ss.