(dp0
S'U6'
p1
(dp2
S'experiment_path'
p3
S'~/Repositories/coxlab/protocols/behavior/go_nogo_ab/gonogo_ab.xml'
p4
sS'autosave_variableset'
p5
I01
sS'datafile_overwrite'
p6
I00
sS'host'
p7
S'setup7'
p8
sS'autoload_variableset'
p9
I01
sS'template'
p10
S'behavior.html'
p11
sS'autoload_experiment'
p12
I01
sS'variableset_overwrite'
p13
I00
ssS'U1'
p14
(dp15
g3
S'~/Repositories/coxlab/protocols/behavior/go_nogo_ab/gonogo_ab.xml'
p16
sg5
I01
sg6
I00
sg7
S'setup8'
p17
sg9
I01
sg10
g11
sg12
I01
sg13
I00
ss.